; ModuleID = '29/48.c'
source_filename = "29/48.c"
target datalayout = "e-m:e-p270:32:32-p271:32:32-p272:64:64-i64:64-f80:128-n8:16:32:64-S128"
target triple = "x86_64-pc-linux-gnu"

@.str = private unnamed_addr constant [3 x i8] c"%d\00", align 1
@.str.1 = private unnamed_addr constant [7 x i8] c"%.3lf\0A\00", align 1

; Function Attrs: noinline nounwind uwtable
define dso_local i32 @f(i32 %0) #0 {
  %2 = alloca i32, align 4
  %3 = alloca i32, align 4
  %4 = alloca i32, align 4
  store i32 %0, i32* %3, align 4
  %5 = load i32, i32* %3, align 4
  %6 = icmp eq i32 %5, 0
  br i1 %6, label %7, label %8

7:                                                ; preds = %1
  store i32 1, i32* %2, align 4
  br label %24

8:                                                ; preds = %1
  %9 = load i32, i32* %3, align 4
  %10 = icmp eq i32 %9, 1
  br i1 %10, label %11, label %12

11:                                               ; preds = %8
  store i32 2, i32* %2, align 4
  br label %24

12:                                               ; preds = %8
  %13 = load i32, i32* %3, align 4
  %14 = icmp sgt i32 %13, 1
  br i1 %14, label %15, label %24

15:                                               ; preds = %12
  %16 = load i32, i32* %3, align 4
  %17 = sub nsw i32 %16, 1
  %18 = call i32 @f(i32 %17)
  %19 = load i32, i32* %3, align 4
  %20 = sub nsw i32 %19, 2
  %21 = call i32 @f(i32 %20)
  %22 = add nsw i32 %18, %21
  store i32 %22, i32* %4, align 4
  %23 = load i32, i32* %4, align 4
  store i32 %23, i32* %2, align 4
  br label %24

24:                                               ; preds = %7, %11, %15, %12
  %25 = load i32, i32* %2, align 4
  ret i32 %25
}

; Function Attrs: noinline nounwind uwtable
define dso_local i32 @main() #0 {
  %1 = alloca i32, align 4
  %2 = alloca i32, align 4
  %3 = alloca [100 x i32], align 16
  %4 = alloca i32, align 4
  %5 = alloca i32, align 4
  %6 = alloca [100 x double], align 16
  store i32 0, i32* %1, align 4
  %7 = call i32 (i8*, ...) @__isoc99_scanf(i8* getelementptr inbounds ([3 x i8], [3 x i8]* @.str, i64 0, i64 0), i32* %2)
  store i32 0, i32* %4, align 4
  br label %8

8:                                                ; preds = %17, %0
  %9 = load i32, i32* %4, align 4
  %10 = load i32, i32* %2, align 4
  %11 = icmp slt i32 %9, %10
  br i1 %11, label %12, label %20

12:                                               ; preds = %8
  %13 = load i32, i32* %4, align 4
  %14 = sext i32 %13 to i64
  %15 = getelementptr inbounds [100 x i32], [100 x i32]* %3, i64 0, i64 %14
  %16 = call i32 (i8*, ...) @__isoc99_scanf(i8* getelementptr inbounds ([3 x i8], [3 x i8]* @.str, i64 0, i64 0), i32* %15)
  br label %17

17:                                               ; preds = %12
  %18 = load i32, i32* %4, align 4
  %19 = add nsw i32 %18, 1
  store i32 %19, i32* %4, align 4
  br label %8

20:                                               ; preds = %8
  store i32 0, i32* %4, align 4
  br label %21

21:                                               ; preds = %61, %20
  %22 = load i32, i32* %4, align 4
  %23 = load i32, i32* %2, align 4
  %24 = icmp slt i32 %22, %23
  br i1 %24, label %25, label %64

25:                                               ; preds = %21
  %26 = load i32, i32* %4, align 4
  %27 = sext i32 %26 to i64
  %28 = getelementptr inbounds [100 x double], [100 x double]* %6, i64 0, i64 %27
  store double 0.000000e+00, double* %28, align 8
  store i32 0, i32* %5, align 4
  br label %29

29:                                               ; preds = %52, %25
  %30 = load i32, i32* %5, align 4
  %31 = load i32, i32* %4, align 4
  %32 = sext i32 %31 to i64
  %33 = getelementptr inbounds [100 x i32], [100 x i32]* %3, i64 0, i64 %32
  %34 = load i32, i32* %33, align 4
  %35 = icmp slt i32 %30, %34
  br i1 %35, label %36, label %55

36:                                               ; preds = %29
  %37 = load i32, i32* %5, align 4
  %38 = add nsw i32 %37, 1
  %39 = call i32 @f(i32 %38)
  %40 = sitofp i32 %39 to double
  %41 = fmul double 1.000000e+00, %40
  %42 = load i32, i32* %5, align 4
  %43 = call i32 @f(i32 %42)
  %44 = sitofp i32 %43 to double
  %45 = fmul double 1.000000e+00, %44
  %46 = fdiv double %41, %45
  %47 = load i32, i32* %4, align 4
  %48 = sext i32 %47 to i64
  %49 = getelementptr inbounds [100 x double], [100 x double]* %6, i64 0, i64 %48
  %50 = load double, double* %49, align 8
  %51 = fadd double %50, %46
  store double %51, double* %49, align 8
  br label %52

52:                                               ; preds = %36
  %53 = load i32, i32* %5, align 4
  %54 = add nsw i32 %53, 1
  store i32 %54, i32* %5, align 4
  br label %29

55:                                               ; preds = %29
  %56 = load i32, i32* %4, align 4
  %57 = sext i32 %56 to i64
  %58 = getelementptr inbounds [100 x double], [100 x double]* %6, i64 0, i64 %57
  %59 = load double, double* %58, align 8
  %60 = call i32 (i8*, ...) @printf(i8* getelementptr inbounds ([7 x i8], [7 x i8]* @.str.1, i64 0, i64 0), double %59)
  br label %61

61:                                               ; preds = %55
  %62 = load i32, i32* %4, align 4
  %63 = add nsw i32 %62, 1
  store i32 %63, i32* %4, align 4
  br label %21

64:                                               ; preds = %21
  ret i32 0
}

declare dso_local i32 @__isoc99_scanf(i8*, ...) #1

declare dso_local i32 @printf(i8*, ...) #1


!llvm.module.flags = !{!0}
!llvm.ident = !{!1}

!0 = !{i32 1, !"wchar_size", i32 4}
!1 = !{!"clang version 10.0.0-4ubuntu1 "}
